; Function Attrs: mustprogress nofree norecurse nosync nounwind willreturn memory(read, inaccessiblemem: none) uwtable
define hidden noundef zeroext i1 @_ZNK13hilbert_basis6is_geqERKNS_6valuesES2_(ptr nocapture noundef nonnull readonly align 8 dereferenceable(127) %this, ptr nocapture noundef nonnull readonly align 8 dereferenceable(8) %v, ptr nocapture noundef nonnull readonly align 8 dereferenceable(8) %w) local_unnamed_addr #8 align 2 {
entry:
  %m_ineqs.i = getelementptr inbounds i8, ptr %this, i64 8
  %0 = load ptr, ptr %m_ineqs.i, align 8
  %cmp.i.i = icmp eq ptr %0, null
  br i1 %cmp.i.i, label %return, label %_ZNK6vectorIS_I13checked_int64ILb1EELb1EjELb1EjE5emptyEv.exit.i

_ZNK6vectorIS_I13checked_int64ILb1EELb1EjELb1EjE5emptyEv.exit.i: ; preds = %entry
  %arrayidx.i.i = getelementptr inbounds i8, ptr %0, i64 -4
  %1 = load i32, ptr %arrayidx.i.i, align 4
  %cmp3.i.i = icmp eq i32 %1, 0
  br i1 %cmp3.i.i, label %return, label %_ZNK6vectorIS_I13checked_int64ILb1EELb1EjELb1EjE4backEv.exit.i

_ZNK6vectorIS_I13checked_int64ILb1EELb1EjELb1EjE4backEv.exit.i: ; preds = %_ZNK6vectorIS_I13checked_int64ILb1EELb1EjELb1EjE5emptyEv.exit.i
  %2 = add i32 %1, -1
  %3 = zext i32 %2 to i64
  %arrayidx.i1.i.i = getelementptr inbounds %class.vector.1, ptr %0, i64 %3
  %4 = load ptr, ptr %arrayidx.i1.i.i, align 8
  %cmp.i1.i = icmp eq ptr %4, null
  br i1 %cmp.i1.i, label %return, label %_ZNK13hilbert_basis12get_num_varsEv.exit

_ZNK13hilbert_basis12get_num_varsEv.exit:         ; preds = %_ZNK6vectorIS_I13checked_int64ILb1EELb1EjELb1EjE4backEv.exit.i
  %arrayidx.i2.i = getelementptr inbounds i8, ptr %4, i64 -4
  %5 = load i32, ptr %arrayidx.i2.i, align 4
  %cmp8 = icmp eq i32 %5, 0
  br i1 %cmp8, label %return, label %for.body.lr.ph

for.body.lr.ph:                                   ; preds = %_ZNK13hilbert_basis12get_num_varsEv.exit
  %6 = load ptr, ptr %v, align 8
  %7 = load ptr, ptr %w, align 8
  %8 = zext i32 %5 to i64
  %9 = load i64, ptr %7, align 8
  %cmp.i.i614 = icmp slt i64 %9, 0
  %10 = load i64, ptr %6, align 8
  %cmp.i.i.i.i15 = icmp sge i64 %9, %10
  %cmp.i.i.i16 = icmp sge i64 %10, %9
  %retval.0.i717 = select i1 %cmp.i.i614, i1 %cmp.i.i.i.i15, i1 %cmp.i.i.i16
  br i1 %retval.0.i717, label %for.cond, label %return

for.cond:                                         ; preds = %for.body.lr.ph, %for.body
  %indvars.iv18 = phi i64 [ %indvars.iv.next, %for.body ], [ 0, %for.body.lr.ph ]
  %indvars.iv.next = add nuw nsw i64 %indvars.iv18, 1
  %exitcond = icmp eq i64 %indvars.iv.next, %8
  br i1 %exitcond, label %return.loopexit, label %for.body, !llvm.loop !75

for.body:                                         ; preds = %for.cond
  %arrayidx.i = getelementptr inbounds %class.checked_int64, ptr %6, i64 %indvars.iv.next
  %arrayidx.i5 = getelementptr inbounds %class.checked_int64, ptr %7, i64 %indvars.iv.next
  %11 = load i64, ptr %arrayidx.i5, align 8
  %cmp.i.i6 = icmp slt i64 %11, 0
  %12 = load i64, ptr %arrayidx.i, align 8
  %cmp.i.i.i.i = icmp sge i64 %11, %12
  %cmp.i.i.i = icmp sge i64 %12, %11
  %retval.0.i7 = select i1 %cmp.i.i6, i1 %cmp.i.i.i.i, i1 %cmp.i.i.i
  br i1 %retval.0.i7, label %for.cond, label %return.loopexit, !llvm.loop !75

return.loopexit:                                  ; preds = %for.body, %for.cond
  %cmp.le = icmp uge i64 %indvars.iv.next, %8
  br label %return

return:                                           ; preds = %return.loopexit, %for.body.lr.ph, %entry, %_ZNK6vectorIS_I13checked_int64ILb1EELb1EjELb1EjE4backEv.exit.i, %_ZNK6vectorIS_I13checked_int64ILb1EELb1EjELb1EjE5emptyEv.exit.i, %_ZNK13hilbert_basis12get_num_varsEv.exit
  %cmp.lcssa = phi i1 [ true, %_ZNK13hilbert_basis12get_num_varsEv.exit ], [ true, %_ZNK6vectorIS_I13checked_int64ILb1EELb1EjELb1EjE5emptyEv.exit.i ], [ true, %_ZNK6vectorIS_I13checked_int64ILb1EELb1EjELb1EjE4backEv.exit.i ], [ true, %entry ], [ false, %for.body.lr.ph ], [ %cmp.le, %return.loopexit ]
  ret i1 %cmp.lcssa
}